target datalayout = "e-m:e-p270:32:32-p271:32:32-p272:64:64-i64:64-i128:128-f80:128-n8:16:32:64-S128"
target triple = "x86_64-pc-linux-gnu"

@.str = private unnamed_addr constant [131 x i8] c"generated/home/dtcxzyw/WorkSpace/Projects/compilers/llvm-opt-benchmark/bench/lief/bench_build/mbed_src/library/ssl_tls13_generic.c\00", align 1
@.str.4 = private unnamed_addr constant [25 x i8] c"missing input data in %s\00", align 1
@__func__.mbedtls_ssl_tls13_is_supported_versions_ext_present_in_exts = private unnamed_addr constant [60 x i8] c"mbedtls_ssl_tls13_is_supported_versions_ext_present_in_exts\00", align 1

; Function Attrs: alwaysinline nounwind uwtable
define internal zeroext i16 @mbedtls_get_unaligned_uint16(ptr noundef %0) #4 {
  %2 = alloca ptr, align 8
  %3 = alloca i16, align 2
  store ptr %0, ptr %2, align 8, !tbaa !31
  call void @llvm.lifetime.start.p0(i64 2, ptr %3) #10
  %4 = load ptr, ptr %2, align 8, !tbaa !31
  call void @llvm.memcpy.p0.p0.i64(ptr align 2 %3, ptr align 1 %4, i64 2, i1 false)
  %5 = load i16, ptr %3, align 2, !tbaa !32
  call void @llvm.lifetime.end.p0(i64 2, ptr %3) #10
  ret i16 %5
}

; Function Attrs: inlinehint nounwind uwtable
define internal i32 @mbedtls_ssl_chk_buf_ptr(ptr noundef %0, ptr noundef %1, i64 noundef %2) #3 {
  %4 = alloca ptr, align 8
  %5 = alloca ptr, align 8
  %6 = alloca i64, align 8
  store ptr %0, ptr %4, align 8, !tbaa !26
  store ptr %1, ptr %5, align 8, !tbaa !26
  store i64 %2, ptr %6, align 8, !tbaa !28
  %7 = load ptr, ptr %4, align 8, !tbaa !26
  %8 = load ptr, ptr %5, align 8, !tbaa !26
  %9 = icmp ugt ptr %7, %8
  br i1 %9, label %18, label %10

10:                                               ; preds = %3
  %11 = load i64, ptr %6, align 8, !tbaa !28
  %12 = load ptr, ptr %5, align 8, !tbaa !26
  %13 = load ptr, ptr %4, align 8, !tbaa !26
  %14 = ptrtoint ptr %12 to i64
  %15 = ptrtoint ptr %13 to i64
  %16 = sub i64 %14, %15
  %17 = icmp ugt i64 %11, %16
  br label %18

18:                                               ; preds = %10, %3
  %19 = phi i1 [ true, %3 ], [ %17, %10 ]
  %20 = zext i1 %19 to i32
  ret i32 %20
}

; Function Attrs: nounwind uwtable
define hidden i32 @mbedtls_ssl_tls13_is_supported_versions_ext_present_in_exts(ptr noundef %0, ptr noundef %1, ptr noundef %2, ptr noundef %3, ptr noundef %4) #0 {
  %6 = alloca i32, align 4
  %7 = alloca ptr, align 8
  %8 = alloca ptr, align 8
  %9 = alloca ptr, align 8
  %10 = alloca ptr, align 8
  %11 = alloca ptr, align 8
  %12 = alloca ptr, align 8
  %13 = alloca i64, align 8
  %14 = alloca ptr, align 8
  %15 = alloca i32, align 4
  %16 = alloca i32, align 4
  %17 = alloca i64, align 8
  store ptr %0, ptr %7, align 8, !tbaa !3
  store ptr %1, ptr %8, align 8, !tbaa !26
  store ptr %2, ptr %9, align 8, !tbaa !26
  store ptr %3, ptr %10, align 8, !tbaa !10
  store ptr %4, ptr %11, align 8, !tbaa !10
  call void @llvm.lifetime.start.p0(i64 8, ptr %12) #10
  %18 = load ptr, ptr %8, align 8, !tbaa !26
  store ptr %18, ptr %12, align 8, !tbaa !26
  call void @llvm.lifetime.start.p0(i64 8, ptr %13) #10
  call void @llvm.lifetime.start.p0(i64 8, ptr %14) #10
  %19 = load ptr, ptr %10, align 8, !tbaa !10
  store ptr null, ptr %19, align 8, !tbaa !26
  %20 = load ptr, ptr %11, align 8, !tbaa !10
  store ptr null, ptr %20, align 8, !tbaa !26
  %21 = load ptr, ptr %12, align 8, !tbaa !26
  %22 = load ptr, ptr %9, align 8, !tbaa !26
  %23 = icmp eq ptr %21, %22
  br i1 %23, label %24, label %25

24:                                               ; preds = %5
  store i32 0, ptr %6, align 4
  store i32 1, ptr %15, align 4
  br label %118

25:                                               ; preds = %5
  br label %26

26:                                               ; preds = %25
  %27 = load ptr, ptr %12, align 8, !tbaa !26
  %28 = load ptr, ptr %9, align 8, !tbaa !26
  %29 = call i32 @mbedtls_ssl_chk_buf_ptr(ptr noundef %27, ptr noundef %28, i64 noundef 2)
  %30 = icmp ne i32 %29, 0
  br i1 %30, label %31, label %34

31:                                               ; preds = %26
  %32 = load ptr, ptr %7, align 8, !tbaa !3
  call void (ptr, i32, ptr, i32, ptr, ...) @mbedtls_debug_print_msg(ptr noundef %32, i32 noundef 1, ptr noundef @.str, i32 noundef 119, ptr noundef @.str.4, ptr noundef @__func__.mbedtls_ssl_tls13_is_supported_versions_ext_present_in_exts)
  %33 = load ptr, ptr %7, align 8, !tbaa !3
  call void @mbedtls_ssl_pend_fatal_alert(ptr noundef %33, i8 noundef zeroext 50, i32 noundef -29440)
  store i32 -29440, ptr %6, align 4
  store i32 1, ptr %15, align 4
  br label %118

34:                                               ; preds = %26
  br label %35

35:                                               ; preds = %34
  br label %36

36:                                               ; preds = %35
  %37 = load ptr, ptr %12, align 8, !tbaa !26
  %38 = getelementptr inbounds i8, ptr %37, i64 0
  %39 = call zeroext i16 @mbedtls_get_unaligned_uint16(ptr noundef %38)
  %40 = call i16 @llvm.bswap.i16(i16 %39)
  %41 = zext i16 %40 to i32
  %42 = sext i32 %41 to i64
  store i64 %42, ptr %13, align 8, !tbaa !28
  %43 = load ptr, ptr %12, align 8, !tbaa !26
  %44 = getelementptr inbounds i8, ptr %43, i64 2
  store ptr %44, ptr %12, align 8, !tbaa !26
  br label %45

45:                                               ; preds = %36
  %46 = load ptr, ptr %12, align 8, !tbaa !26
  %47 = load ptr, ptr %9, align 8, !tbaa !26
  %48 = load i64, ptr %13, align 8, !tbaa !28
  %49 = call i32 @mbedtls_ssl_chk_buf_ptr(ptr noundef %46, ptr noundef %47, i64 noundef %48)
  %50 = icmp ne i32 %49, 0
  br i1 %50, label %51, label %54

51:                                               ; preds = %45
  %52 = load ptr, ptr %7, align 8, !tbaa !3
  call void (ptr, i32, ptr, i32, ptr, ...) @mbedtls_debug_print_msg(ptr noundef %52, i32 noundef 1, ptr noundef @.str, i32 noundef 124, ptr noundef @.str.4, ptr noundef @__func__.mbedtls_ssl_tls13_is_supported_versions_ext_present_in_exts)
  %53 = load ptr, ptr %7, align 8, !tbaa !3
  call void @mbedtls_ssl_pend_fatal_alert(ptr noundef %53, i8 noundef zeroext 50, i32 noundef -29440)
  store i32 -29440, ptr %6, align 4
  store i32 1, ptr %15, align 4
  br label %118

54:                                               ; preds = %45
  br label %55

55:                                               ; preds = %54
  br label %56

56:                                               ; preds = %55
  %57 = load ptr, ptr %12, align 8, !tbaa !26
  %58 = load i64, ptr %13, align 8, !tbaa !28
  %59 = getelementptr inbounds nuw i8, ptr %57, i64 %58
  store ptr %59, ptr %14, align 8, !tbaa !26
  br label %60

60:                                               ; preds = %116, %56
  %61 = load ptr, ptr %12, align 8, !tbaa !26
  %62 = load ptr, ptr %14, align 8, !tbaa !26
  %63 = icmp ult ptr %61, %62
  br i1 %63, label %64, label %117

64:                                               ; preds = %60
  call void @llvm.lifetime.start.p0(i64 4, ptr %16) #10
  call void @llvm.lifetime.start.p0(i64 8, ptr %17) #10
  br label %65

65:                                               ; preds = %64
  %66 = load ptr, ptr %12, align 8, !tbaa !26
  %67 = load ptr, ptr %14, align 8, !tbaa !26
  %68 = call i32 @mbedtls_ssl_chk_buf_ptr(ptr noundef %66, ptr noundef %67, i64 noundef 4)
  %69 = icmp ne i32 %68, 0
  br i1 %69, label %70, label %73

70:                                               ; preds = %65
  %71 = load ptr, ptr %7, align 8, !tbaa !3
  call void (ptr, i32, ptr, i32, ptr, ...) @mbedtls_debug_print_msg(ptr noundef %71, i32 noundef 1, ptr noundef @.str, i32 noundef 131, ptr noundef @.str.4, ptr noundef @__func__.mbedtls_ssl_tls13_is_supported_versions_ext_present_in_exts)
  %72 = load ptr, ptr %7, align 8, !tbaa !3
  call void @mbedtls_ssl_pend_fatal_alert(ptr noundef %72, i8 noundef zeroext 50, i32 noundef -29440)
  store i32 -29440, ptr %6, align 4
  store i32 1, ptr %15, align 4
  br label %114

73:                                               ; preds = %65
  br label %74

74:                                               ; preds = %73
  br label %75

75:                                               ; preds = %74
  %76 = load ptr, ptr %12, align 8, !tbaa !26
  %77 = getelementptr inbounds i8, ptr %76, i64 0
  %78 = call zeroext i16 @mbedtls_get_unaligned_uint16(ptr noundef %77)
  %79 = call i16 @llvm.bswap.i16(i16 %78)
  %80 = zext i16 %79 to i32
  store i32 %80, ptr %16, align 4, !tbaa !8
  %81 = load ptr, ptr %12, align 8, !tbaa !26
  %82 = getelementptr inbounds i8, ptr %81, i64 2
  %83 = call zeroext i16 @mbedtls_get_unaligned_uint16(ptr noundef %82)
  %84 = call i16 @llvm.bswap.i16(i16 %83)
  %85 = zext i16 %84 to i32
  %86 = sext i32 %85 to i64
  store i64 %86, ptr %17, align 8, !tbaa !28
  %87 = load ptr, ptr %12, align 8, !tbaa !26
  %88 = getelementptr inbounds i8, ptr %87, i64 4
  store ptr %88, ptr %12, align 8, !tbaa !26
  br label %89

89:                                               ; preds = %75
  %90 = load ptr, ptr %12, align 8, !tbaa !26
  %91 = load ptr, ptr %14, align 8, !tbaa !26
  %92 = load i64, ptr %17, align 8, !tbaa !28
  %93 = call i32 @mbedtls_ssl_chk_buf_ptr(ptr noundef %90, ptr noundef %91, i64 noundef %92)
  %94 = icmp ne i32 %93, 0
  br i1 %94, label %95, label %98

95:                                               ; preds = %89
  %96 = load ptr, ptr %7, align 8, !tbaa !3
  call void (ptr, i32, ptr, i32, ptr, ...) @mbedtls_debug_print_msg(ptr noundef %96, i32 noundef 1, ptr noundef @.str, i32 noundef 135, ptr noundef @.str.4, ptr noundef @__func__.mbedtls_ssl_tls13_is_supported_versions_ext_present_in_exts)
  %97 = load ptr, ptr %7, align 8, !tbaa !3
  call void @mbedtls_ssl_pend_fatal_alert(ptr noundef %97, i8 noundef zeroext 50, i32 noundef -29440)
  store i32 -29440, ptr %6, align 4
  store i32 1, ptr %15, align 4
  br label %114

98:                                               ; preds = %89
  br label %99

99:                                               ; preds = %98
  br label %100

100:                                              ; preds = %99
  %101 = load i32, ptr %16, align 4, !tbaa !8
  %102 = icmp eq i32 %101, 43
  br i1 %102, label %103, label %110

103:                                              ; preds = %100
  %104 = load ptr, ptr %12, align 8, !tbaa !26
  %105 = load ptr, ptr %10, align 8, !tbaa !10
  store ptr %104, ptr %105, align 8, !tbaa !26
  %106 = load ptr, ptr %12, align 8, !tbaa !26
  %107 = load i64, ptr %17, align 8, !tbaa !28
  %108 = getelementptr inbounds nuw i8, ptr %106, i64 %107
  %109 = load ptr, ptr %11, align 8, !tbaa !10
  store ptr %108, ptr %109, align 8, !tbaa !26
  store i32 1, ptr %6, align 4
  store i32 1, ptr %15, align 4
  br label %114

110:                                              ; preds = %100
  %111 = load i64, ptr %17, align 8, !tbaa !28
  %112 = load ptr, ptr %12, align 8, !tbaa !26
  %113 = getelementptr inbounds nuw i8, ptr %112, i64 %111
  store ptr %113, ptr %12, align 8, !tbaa !26
  store i32 0, ptr %15, align 4
  br label %114

114:                                              ; preds = %110, %103, %95, %70
  call void @llvm.lifetime.end.p0(i64 8, ptr %17) #10
  call void @llvm.lifetime.end.p0(i64 4, ptr %16) #10
  %115 = load i32, ptr %15, align 4
  switch i32 %115, label %118 [
    i32 0, label %116
  ]

116:                                              ; preds = %114
  br label %60, !llvm.loop !29

117:                                              ; preds = %60
  store i32 0, ptr %6, align 4
  store i32 1, ptr %15, align 4
  br label %118

118:                                              ; preds = %117, %114, %51, %31, %24
  call void @llvm.lifetime.end.p0(i64 8, ptr %14) #10
  call void @llvm.lifetime.end.p0(i64 8, ptr %13) #10
  call void @llvm.lifetime.end.p0(i64 8, ptr %12) #10
  %119 = load i32, ptr %6, align 4
  ret i32 %119
}