; Function Attrs: nounwind uwtable
define hidden range(i32 -29440, 2) i32 @mbedtls_ssl_tls13_is_supported_versions_ext_present_in_exts(ptr noundef %0, ptr noundef %1, ptr noundef %2, ptr noundef writeonly captures(none) initializes((0, 8)) %3, ptr noundef writeonly captures(none) initializes((0, 8)) %4) local_unnamed_addr #0 {
  store ptr null, ptr %3, align 8, !tbaa !18
  store ptr null, ptr %4, align 8, !tbaa !18
  %6 = icmp eq ptr %1, %2
  br i1 %6, label %.thread, label %7

7:                                                ; preds = %5
  %8 = icmp ule ptr %1, %2
  %9 = ptrtoint ptr %2 to i64
  %10 = ptrtoint ptr %1 to i64
  %11 = sub i64 %9, %10
  %12 = icmp ugt i64 %11, 1
  %narrow.i.not = and i1 %8, %12
  br i1 %narrow.i.not, label %14, label %13

13:                                               ; preds = %7
  tail call void (ptr, i32, ptr, i32, ptr, ...) @mbedtls_debug_print_msg(ptr noundef %0, i32 noundef 1, ptr noundef nonnull @.str, i32 noundef 119, ptr noundef nonnull @.str.4, ptr noundef nonnull @__func__.mbedtls_ssl_tls13_is_supported_versions_ext_present_in_exts) #8
  tail call void @mbedtls_ssl_pend_fatal_alert(ptr noundef %0, i8 noundef zeroext 50, i32 noundef -29440) #8
  br label %.thread

14:                                               ; preds = %7
  %.0.copyload.i = load i16, ptr %1, align 1
  %15 = tail call i16 @llvm.bswap.i16(i16 %.0.copyload.i)
  %16 = zext i16 %15 to i64
  %.ptr = getelementptr inbounds nuw i8, ptr %1, i64 2
  %17 = icmp ule ptr %.ptr, %2
  %18 = ptrtoint ptr %.ptr to i64
  %19 = sub i64 %9, %18
  %20 = icmp uge i64 %19, %16
  %narrow.i52.not = and i1 %17, %20
  br i1 %narrow.i52.not, label %22, label %21

21:                                               ; preds = %14
  tail call void (ptr, i32, ptr, i32, ptr, ...) @mbedtls_debug_print_msg(ptr noundef %0, i32 noundef 1, ptr noundef nonnull @.str, i32 noundef 124, ptr noundef nonnull @.str.4, ptr noundef nonnull @__func__.mbedtls_ssl_tls13_is_supported_versions_ext_present_in_exts) #8
  tail call void @mbedtls_ssl_pend_fatal_alert(ptr noundef %0, i8 noundef zeroext 50, i32 noundef -29440) #8
  br label %.thread

22:                                               ; preds = %14
  %23 = getelementptr inbounds nuw i8, ptr %1, i64 %16
  %.ptr66 = getelementptr inbounds nuw i8, ptr %23, i64 2
  %.not = icmp eq i16 %.0.copyload.i, 0
  br i1 %.not, label %.thread, label %.lr.ph

.lr.ph:                                           ; preds = %22
  %24 = ptrtoint ptr %.ptr66 to i64
  br label %25

25:                                               ; preds = %.lr.ph, %44
  %.04165 = phi ptr [ %.ptr, %.lr.ph ], [ %45, %44 ]
  %26 = ptrtoint ptr %.04165 to i64
  %27 = sub i64 %24, %26
  %28 = icmp ugt i64 %27, 3
  br i1 %28, label %30, label %29

29:                                               ; preds = %25
  tail call void (ptr, i32, ptr, i32, ptr, ...) @mbedtls_debug_print_msg(ptr noundef %0, i32 noundef 1, ptr noundef nonnull @.str, i32 noundef 131, ptr noundef nonnull @.str.4, ptr noundef nonnull @__func__.mbedtls_ssl_tls13_is_supported_versions_ext_present_in_exts) #8
  tail call void @mbedtls_ssl_pend_fatal_alert(ptr noundef %0, i8 noundef zeroext 50, i32 noundef -29440) #8
  br label %.thread

30:                                               ; preds = %25
  %31 = getelementptr inbounds nuw i8, ptr %.04165, i64 2
  %.0.copyload.i51 = load i16, ptr %31, align 1
  %32 = tail call i16 @llvm.bswap.i16(i16 %.0.copyload.i51)
  %33 = zext i16 %32 to i64
  %34 = getelementptr inbounds nuw i8, ptr %.04165, i64 4
  %35 = icmp ule ptr %34, %.ptr66
  %36 = ptrtoint ptr %34 to i64
  %37 = sub i64 %24, %36
  %38 = icmp uge i64 %37, %33
  %narrow.i54.not = and i1 %35, %38
  br i1 %narrow.i54.not, label %40, label %39

39:                                               ; preds = %30
  tail call void (ptr, i32, ptr, i32, ptr, ...) @mbedtls_debug_print_msg(ptr noundef %0, i32 noundef 1, ptr noundef nonnull @.str, i32 noundef 135, ptr noundef nonnull @.str.4, ptr noundef nonnull @__func__.mbedtls_ssl_tls13_is_supported_versions_ext_present_in_exts) #8
  tail call void @mbedtls_ssl_pend_fatal_alert(ptr noundef %0, i8 noundef zeroext 50, i32 noundef -29440) #8
  br label %.thread

40:                                               ; preds = %30
  %.0.copyload.i50 = load i16, ptr %.04165, align 1
  %41 = icmp eq i16 %.0.copyload.i50, 11008
  br i1 %41, label %42, label %44

42:                                               ; preds = %40
  store ptr %34, ptr %3, align 8, !tbaa !18
  %43 = getelementptr inbounds nuw i8, ptr %34, i64 %33
  store ptr %43, ptr %4, align 8, !tbaa !18
  br label %.thread

44:                                               ; preds = %40
  %45 = getelementptr inbounds nuw i8, ptr %34, i64 %33
  %46 = icmp ult ptr %45, %.ptr66
  br i1 %46, label %25, label %.thread, !llvm.loop !21

.thread:                                          ; preds = %44, %22, %42, %39, %29, %5, %21, %13
  %.0 = phi i32 [ -29440, %13 ], [ -29440, %21 ], [ 0, %5 ], [ 1, %42 ], [ -29440, %39 ], [ -29440, %29 ], [ 0, %22 ], [ 0, %44 ]
  ret i32 %.0
}